; Function Attrs: nounwind uwtable
define range(i32 0, 2) i32 @ssl_check_version_downgrade(ptr noundef %0) local_unnamed_addr #0 {
  %2 = getelementptr inbounds nuw i8, ptr %0, i64 72
  %3 = load i32, ptr %2, align 8, !tbaa !90
  %4 = getelementptr inbounds nuw i8, ptr %0, i64 16
  %5 = load ptr, ptr %4, align 8, !tbaa !229
  %6 = load i32, ptr %5, align 8, !tbaa !87
  %7 = icmp eq i32 %3, %6
  br i1 %7, label %.loopexit, label %8

8:                                                ; preds = %1
  %9 = tail call ptr @TLS_method() #11
  %10 = load i32, ptr %9, align 8, !tbaa !87
  %11 = icmp eq i32 %6, %10
  br i1 %11, label %18, label %12

12:                                               ; preds = %8
  %13 = load ptr, ptr %4, align 8, !tbaa !229
  %14 = load i32, ptr %13, align 8, !tbaa !87
  %15 = tail call ptr @DTLS_method() #11
  %16 = load i32, ptr %15, align 8, !tbaa !87
  %17 = icmp eq i32 %14, %16
  br i1 %17, label %18, label %.loopexit

18:                                               ; preds = %12, %8
  %.013 = phi ptr [ @tls_version_table, %8 ], [ @dtls_version_table, %12 ]
  %19 = load i32, ptr %.013, align 16, !tbaa !94
  %.not19 = icmp eq i32 %19, 0
  br i1 %.not19, label %.loopexit, label %.lr.ph

.lr.ph:                                           ; preds = %18, %31
  %20 = phi i32 [ %33, %31 ], [ %19, %18 ]
  %.01420 = phi ptr [ %32, %31 ], [ %.013, %18 ]
  %21 = getelementptr inbounds nuw i8, ptr %.01420, i64 16
  %22 = load ptr, ptr %21, align 8, !tbaa !230
  %.not17 = icmp eq ptr %22, null
  br i1 %.not17, label %31, label %23

23:                                               ; preds = %.lr.ph
  %24 = tail call ptr %22() #11
  %25 = tail call fastcc i32 @ssl_method_error(ptr noundef %0, ptr noundef %24)
  %26 = icmp eq i32 %25, 0
  br i1 %26, label %27, label %31

27:                                               ; preds = %23
  %28 = load i32, ptr %2, align 8, !tbaa !90
  %29 = icmp eq i32 %28, %20
  %30 = zext i1 %29 to i32
  br label %.loopexit

31:                                               ; preds = %.lr.ph, %23
  %32 = getelementptr inbounds nuw i8, ptr %.01420, i64 24
  %33 = load i32, ptr %32, align 8, !tbaa !94
  %.not = icmp eq i32 %33, 0
  br i1 %.not, label %.loopexit, label %.lr.ph, !llvm.loop !231

.loopexit:                                        ; preds = %31, %18, %12, %1, %27
  %.0 = phi i32 [ %30, %27 ], [ 1, %1 ], [ 0, %12 ], [ 0, %18 ], [ 0, %31 ]
  ret i32 %.0
}